target datalayout = "e-m:e-p270:32:32-p271:32:32-p272:64:64-i64:64-i128:128-f80:128-n8:16:32:64-S128"
target triple = "x86_64-pc-linux-gnu"

%struct.jpeg_compress_struct = type { ptr, ptr, ptr, ptr, i32, i32, ptr, i32, i32, i32, i32, double, i32, i32, i32, ptr, [4 x ptr], [4 x ptr], [4 x ptr], [16 x i8], [16 x i8], [16 x i8], i32, ptr, i32, i32, i32, i32, i32, i32, i32, i32, i32, i8, i8, i8, i16, i16, i32, i32, i32, i32, i32, i32, i32, [4 x ptr], i32, i32, i32, [10 x i32], i32, i32, i32, i32, ptr, ptr, ptr, ptr, ptr, ptr, ptr, ptr, ptr, ptr, i32 }
%struct.phuff_entropy_encoder = type { %struct.jpeg_entropy_encoder, ptr, ptr, i32, ptr, i64, i64, i32, ptr, [4 x i32], i32, i32, i32, ptr, i32, i32, [4 x ptr], [4 x ptr] }
%struct.jpeg_entropy_encoder = type { ptr, ptr, ptr, ptr }
%struct.jpeg_destination_mgr = type { ptr, i64, ptr, ptr, ptr }

; Function Attrs: nounwind uwtable
define internal void @flush_bits(ptr noundef %0) #0 {
  %2 = alloca ptr, align 8
  store ptr %0, ptr %2, align 8, !tbaa !29
  %3 = load ptr, ptr %2, align 8, !tbaa !29
  call void @emit_bits(ptr noundef %3, i32 noundef 127, i32 noundef 7)
  %4 = load ptr, ptr %2, align 8, !tbaa !29
  %5 = getelementptr inbounds nuw %struct.phuff_entropy_encoder, ptr %4, i32 0, i32 6
  store i64 0, ptr %5, align 8, !tbaa !63
  %6 = load ptr, ptr %2, align 8, !tbaa !29
  %7 = getelementptr inbounds nuw %struct.phuff_entropy_encoder, ptr %6, i32 0, i32 7
  store i32 0, ptr %7, align 8, !tbaa !64
  ret void
}

; Function Attrs: nounwind uwtable
define internal void @finish_pass_phuff(ptr noundef %0) #0 {
  %2 = alloca ptr, align 8
  %3 = alloca ptr, align 8
  store ptr %0, ptr %2, align 8, !tbaa !3
  call void @llvm.lifetime.start.p0(i64 8, ptr %3) #6
  %4 = load ptr, ptr %2, align 8, !tbaa !3
  %5 = getelementptr inbounds nuw %struct.jpeg_compress_struct, ptr %4, i32 0, i32 62
  %6 = load ptr, ptr %5, align 8, !tbaa !30
  store ptr %6, ptr %3, align 8, !tbaa !29
  %7 = load ptr, ptr %2, align 8, !tbaa !3
  %8 = getelementptr inbounds nuw %struct.jpeg_compress_struct, ptr %7, i32 0, i32 6
  %9 = load ptr, ptr %8, align 8, !tbaa !72
  %10 = getelementptr inbounds nuw %struct.jpeg_destination_mgr, ptr %9, i32 0, i32 0
  %11 = load ptr, ptr %10, align 8, !tbaa !73
  %12 = load ptr, ptr %3, align 8, !tbaa !29
  %13 = getelementptr inbounds nuw %struct.phuff_entropy_encoder, ptr %12, i32 0, i32 4
  store ptr %11, ptr %13, align 8, !tbaa !75
  %14 = load ptr, ptr %2, align 8, !tbaa !3
  %15 = getelementptr inbounds nuw %struct.jpeg_compress_struct, ptr %14, i32 0, i32 6
  %16 = load ptr, ptr %15, align 8, !tbaa !72
  %17 = getelementptr inbounds nuw %struct.jpeg_destination_mgr, ptr %16, i32 0, i32 1
  %18 = load i64, ptr %17, align 8, !tbaa !76
  %19 = load ptr, ptr %3, align 8, !tbaa !29
  %20 = getelementptr inbounds nuw %struct.phuff_entropy_encoder, ptr %19, i32 0, i32 5
  store i64 %18, ptr %20, align 8, !tbaa !77
  %21 = load ptr, ptr %3, align 8, !tbaa !29
  call void @emit_eobrun(ptr noundef %21)
  %22 = load ptr, ptr %3, align 8, !tbaa !29
  call void @flush_bits(ptr noundef %22)
  %23 = load ptr, ptr %3, align 8, !tbaa !29
  %24 = getelementptr inbounds nuw %struct.phuff_entropy_encoder, ptr %23, i32 0, i32 4
  %25 = load ptr, ptr %24, align 8, !tbaa !75
  %26 = load ptr, ptr %2, align 8, !tbaa !3
  %27 = getelementptr inbounds nuw %struct.jpeg_compress_struct, ptr %26, i32 0, i32 6
  %28 = load ptr, ptr %27, align 8, !tbaa !72
  %29 = getelementptr inbounds nuw %struct.jpeg_destination_mgr, ptr %28, i32 0, i32 0
  store ptr %25, ptr %29, align 8, !tbaa !73
  %30 = load ptr, ptr %3, align 8, !tbaa !29
  %31 = getelementptr inbounds nuw %struct.phuff_entropy_encoder, ptr %30, i32 0, i32 5
  %32 = load i64, ptr %31, align 8, !tbaa !77
  %33 = load ptr, ptr %2, align 8, !tbaa !3
  %34 = getelementptr inbounds nuw %struct.jpeg_compress_struct, ptr %33, i32 0, i32 6
  %35 = load ptr, ptr %34, align 8, !tbaa !72
  %36 = getelementptr inbounds nuw %struct.jpeg_destination_mgr, ptr %35, i32 0, i32 1
  store i64 %32, ptr %36, align 8, !tbaa !76
  call void @llvm.lifetime.end.p0(i64 8, ptr %3) #6
  ret void
}