; Function Attrs: nounwind uwtable
define internal void @finish_pass_phuff(ptr noundef readonly captures(none) %0) #0 {
  %2 = getelementptr inbounds nuw i8, ptr %0, i64 496
  %3 = load ptr, ptr %2, align 8, !tbaa !27
  %4 = getelementptr inbounds nuw i8, ptr %0, i64 40
  %5 = load ptr, ptr %4, align 8, !tbaa !68
  %6 = load ptr, ptr %5, align 8, !tbaa !69
  %7 = getelementptr inbounds nuw i8, ptr %3, i64 56
  store ptr %6, ptr %7, align 8, !tbaa !71
  %8 = getelementptr inbounds nuw i8, ptr %5, i64 8
  %9 = load i64, ptr %8, align 8, !tbaa !72
  %10 = getelementptr inbounds nuw i8, ptr %3, i64 64
  store i64 %9, ptr %10, align 8, !tbaa !73
  tail call fastcc void @emit_eobrun(ptr noundef %3)
  tail call fastcc void @emit_bits(ptr noundef %3, i32 noundef 127, i32 noundef 7)
  %11 = getelementptr inbounds nuw i8, ptr %3, i64 72
  store i64 0, ptr %11, align 8, !tbaa !61
  %12 = getelementptr inbounds nuw i8, ptr %3, i64 80
  store i32 0, ptr %12, align 8, !tbaa !62
  %13 = load ptr, ptr %7, align 8, !tbaa !71
  %14 = load ptr, ptr %4, align 8, !tbaa !68
  store ptr %13, ptr %14, align 8, !tbaa !69
  %15 = load i64, ptr %10, align 8, !tbaa !73
  %16 = getelementptr inbounds nuw i8, ptr %14, i64 8
  store i64 %15, ptr %16, align 8, !tbaa !72
  ret void
}